; ModuleID = '60/1816.c'
source_filename = "60/1816.c"
target datalayout = "e-m:e-p270:32:32-p271:32:32-p272:64:64-i64:64-f80:128-n8:16:32:64-S128"
target triple = "x86_64-pc-linux-gnu"

@.str = private unnamed_addr constant [3 x i8] c"%d\00", align 1
@.str.1 = private unnamed_addr constant [7 x i8] c"%d %d\0A\00", align 1
@.str.2 = private unnamed_addr constant [7 x i8] c"empty\0A\00", align 1

; Function Attrs: noinline nounwind uwtable
define dso_local i32 @main() #0 {
  %1 = alloca i32, align 4
  %2 = alloca i32, align 4
  %3 = alloca i32, align 4
  %4 = alloca i32, align 4
  store i32 0, i32* %1, align 4
  store i32 0, i32* %4, align 4
  %5 = call i32 (i8*, ...) @__isoc99_scanf(i8* getelementptr inbounds ([3 x i8], [3 x i8]* @.str, i64 0, i64 0), i32* %2)
  store i32 1, i32* %3, align 4
  br label %6

6:                                                ; preds = %27, %0
  %7 = load i32, i32* %3, align 4
  %8 = load i32, i32* %2, align 4
  %9 = sub nsw i32 %8, 2
  %10 = icmp sle i32 %7, %9
  br i1 %10, label %11, label %30

11:                                               ; preds = %6
  %12 = load i32, i32* %3, align 4
  %13 = call i32 @prime(i32 %12)
  %14 = load i32, i32* %3, align 4
  %15 = add nsw i32 %14, 2
  %16 = call i32 @prime(i32 %15)
  %17 = mul nsw i32 %13, %16
  %18 = icmp eq i32 %17, 1
  br i1 %18, label %19, label %26

19:                                               ; preds = %11
  %20 = load i32, i32* %3, align 4
  %21 = load i32, i32* %3, align 4
  %22 = add nsw i32 %21, 2
  %23 = call i32 (i8*, ...) @printf(i8* getelementptr inbounds ([7 x i8], [7 x i8]* @.str.1, i64 0, i64 0), i32 %20, i32 %22)
  %24 = load i32, i32* %4, align 4
  %25 = add nsw i32 %24, 1
  store i32 %25, i32* %4, align 4
  br label %26

26:                                               ; preds = %19, %11
  br label %27

27:                                               ; preds = %26
  %28 = load i32, i32* %3, align 4
  %29 = add nsw i32 %28, 1
  store i32 %29, i32* %3, align 4
  br label %6

30:                                               ; preds = %6
  %31 = load i32, i32* %4, align 4
  %32 = icmp eq i32 %31, 0
  br i1 %32, label %33, label %35

33:                                               ; preds = %30
  %34 = call i32 (i8*, ...) @printf(i8* getelementptr inbounds ([7 x i8], [7 x i8]* @.str.2, i64 0, i64 0))
  br label %35

35:                                               ; preds = %33, %30
  ret i32 0
}

declare dso_local i32 @__isoc99_scanf(i8*, ...) #1

; Function Attrs: noinline nounwind uwtable
define dso_local i32 @prime(i32 %0) #0 {
  %2 = alloca i32, align 4
  %3 = alloca i32, align 4
  %4 = alloca i32, align 4
  %5 = alloca i32, align 4
  store i32 %0, i32* %3, align 4
  %6 = load i32, i32* %3, align 4
  %7 = icmp eq i32 %6, 1
  br i1 %7, label %8, label %9

8:                                                ; preds = %1
  store i32 0, i32* %2, align 4
  br label %35

9:                                                ; preds = %1
  %10 = load i32, i32* %3, align 4
  %11 = sitofp i32 %10 to float
  %12 = fpext float %11 to double
  %13 = call double @sqrt(double %12) #3
  %14 = fptosi double %13 to i32
  store i32 %14, i32* %5, align 4
  store i32 2, i32* %4, align 4
  br label %15

15:                                               ; preds = %26, %9
  %16 = load i32, i32* %4, align 4
  %17 = load i32, i32* %5, align 4
  %18 = icmp sle i32 %16, %17
  br i1 %18, label %19, label %29

19:                                               ; preds = %15
  %20 = load i32, i32* %3, align 4
  %21 = load i32, i32* %4, align 4
  %22 = srem i32 %20, %21
  %23 = icmp eq i32 %22, 0
  br i1 %23, label %24, label %25

24:                                               ; preds = %19
  br label %29

25:                                               ; preds = %19
  br label %26

26:                                               ; preds = %25
  %27 = load i32, i32* %4, align 4
  %28 = add nsw i32 %27, 1
  store i32 %28, i32* %4, align 4
  br label %15

29:                                               ; preds = %24, %15
  %30 = load i32, i32* %4, align 4
  %31 = load i32, i32* %5, align 4
  %32 = icmp sgt i32 %30, %31
  br i1 %32, label %33, label %34

33:                                               ; preds = %29
  store i32 1, i32* %2, align 4
  br label %35

34:                                               ; preds = %29
  store i32 0, i32* %2, align 4
  br label %35

35:                                               ; preds = %34, %33, %8
  %36 = load i32, i32* %2, align 4
  ret i32 %36
}

declare dso_local i32 @printf(i8*, ...) #1

; Function Attrs: nounwind
declare dso_local double @sqrt(double) #2


!llvm.module.flags = !{!0}
!llvm.ident = !{!1}

!0 = !{i32 1, !"wchar_size", i32 4}
!1 = !{!"clang version 10.0.0-4ubuntu1 "}
